target datalayout = "e-m:e-p270:32:32-p271:32:32-p272:64:64-i64:64-i128:128-f80:128-n8:16:32:64-S128"
target triple = "x86_64-pc-linux-gnu"

%"struct.OpenImageIO::v3_1_0::ROI" = type { i32, i32, i32, i32, i32, i32, i32, i32 }
%"class.OpenImageIO::v3_1_0::ImageBuf" = type { %"class.std::unique_ptr" }
%"class.std::unique_ptr" = type { %"struct.std::__uniq_ptr_data" }
%"struct.std::__uniq_ptr_data" = type { %"class.std::__uniq_ptr_impl" }
%"class.std::__uniq_ptr_impl" = type { %"class.std::tuple" }
%"class.std::tuple" = type { %"struct.std::_Tuple_impl" }
%"struct.std::_Tuple_impl" = type { %"struct.std::_Tuple_impl.0", %"struct.std::_Head_base.1" }
%"struct.std::_Tuple_impl.0" = type { %"struct.std::_Head_base" }
%"struct.std::_Head_base" = type { ptr }
%"struct.std::_Head_base.1" = type { ptr }

@.str.45 = private unnamed_addr constant [32 x i8] c"ImageBufAlgo::laplacian() error\00", align 1

; Function Attrs: mustprogress uwtable
define void @_ZN11OpenImageIO6v3_1_012ImageBufAlgo9laplacianERKNS0_8ImageBufENS0_3ROIEi(ptr dead_on_unwind noalias writable sret(%"class.OpenImageIO::v3_1_0::ImageBuf") align 8 %0, ptr noundef nonnull align 8 dereferenceable(16) %1, ptr noundef byval(%"struct.OpenImageIO::v3_1_0::ROI") align 8 %2, i32 noundef %3) #6 personality ptr @__gxx_personality_v0 {
  %5 = alloca ptr, align 8
  %6 = alloca ptr, align 8
  %7 = alloca i32, align 4
  %8 = alloca i1, align 1
  %9 = alloca i8, align 1
  %10 = alloca %"struct.OpenImageIO::v3_1_0::ROI", align 8
  %11 = alloca ptr, align 8
  %12 = alloca i32, align 4
  store ptr %0, ptr %5, align 8
  store ptr %1, ptr %6, align 8, !tbaa !10
  store i32 %3, ptr %7, align 4, !tbaa !14
  store i1 false, ptr %8, align 1
  call void @_ZN11OpenImageIO6v3_1_08ImageBufC1Ev(ptr noundef nonnull align 8 dereferenceable(16) %0)
  call void @llvm.lifetime.start.p0(i64 1, ptr %9) #3
  %13 = load ptr, ptr %6, align 8, !tbaa !10
  call void @llvm.memcpy.p0.p0.i64(ptr align 4 %10, ptr align 8 %2, i64 32, i1 false), !tbaa.struct !16
  %14 = load i32, ptr %7, align 4, !tbaa !14
  %15 = invoke noundef zeroext i1 @_ZN11OpenImageIO6v3_1_012ImageBufAlgo9laplacianERNS0_8ImageBufERKS2_NS0_3ROIEi(ptr noundef nonnull align 8 dereferenceable(16) %0, ptr noundef nonnull align 8 dereferenceable(16) %13, ptr noundef byval(%"struct.OpenImageIO::v3_1_0::ROI") align 8 %10, i32 noundef %14)
          to label %16 unwind label %25

16:                                               ; preds = %4
  %17 = zext i1 %15 to i8
  store i8 %17, ptr %9, align 1, !tbaa !108
  %18 = load i8, ptr %9, align 1, !tbaa !108, !range !113, !noundef !114
  %19 = trunc i8 %18 to i1
  br i1 %19, label %29, label %20

20:                                               ; preds = %16
  %21 = invoke noundef zeroext i1 @_ZNK11OpenImageIO6v3_1_08ImageBuf9has_errorEv(ptr noundef nonnull align 8 dereferenceable(16) %0)
          to label %22 unwind label %25

22:                                               ; preds = %20
  br i1 %21, label %29, label %23

23:                                               ; preds = %22
  invoke void @_ZNK11OpenImageIO6v3_1_08ImageBuf8errorfmtIA32_cJEEEvRKT_DpOT0_(ptr noundef nonnull align 8 dereferenceable(16) %0, ptr noundef nonnull align 1 dereferenceable(32) @.str.45)
          to label %24 unwind label %25

24:                                               ; preds = %23
  br label %29

25:                                               ; preds = %23, %20, %4
  %26 = landingpad { ptr, i32 }
          cleanup
  %27 = extractvalue { ptr, i32 } %26, 0
  store ptr %27, ptr %11, align 8
  %28 = extractvalue { ptr, i32 } %26, 1
  store i32 %28, ptr %12, align 4
  call void @llvm.lifetime.end.p0(i64 1, ptr %9) #3
  call void @_ZN11OpenImageIO6v3_1_08ImageBufD1Ev(ptr noundef nonnull align 8 dereferenceable(16) %0) #3
  br label %33

29:                                               ; preds = %24, %22, %16
  store i1 true, ptr %8, align 1
  call void @llvm.lifetime.end.p0(i64 1, ptr %9) #3
  %30 = load i1, ptr %8, align 1
  br i1 %30, label %32, label %31

31:                                               ; preds = %29
  call void @_ZN11OpenImageIO6v3_1_08ImageBufD1Ev(ptr noundef nonnull align 8 dereferenceable(16) %0) #3
  br label %32

32:                                               ; preds = %31, %29
  ret void

33:                                               ; preds = %25
  %34 = load ptr, ptr %11, align 8
  %35 = load i32, ptr %12, align 4
  %36 = insertvalue { ptr, i32 } poison, ptr %34, 0
  %37 = insertvalue { ptr, i32 } %36, i32 %35, 1
  resume { ptr, i32 } %37
}